target datalayout = "e-m:e-p270:32:32-p271:32:32-p272:64:64-i64:64-i128:128-f80:128-n8:16:32:64-S128"
target triple = "x86_64-pc-linux-gnu"

%struct.VLCElem = type { %union.anon.1 }
%union.anon.1 = type { %struct.anon }
%struct.anon = type { i16, i16 }
%struct.VLC = type { i32, ptr, i32, i32 }

@sin_table = internal global [512 x float] zeroinitializer, align 16
@qdmc_init_static_data.vlc_buffer = internal global [13698 x %struct.VLCElem] zeroinitializer, align 16
@vtable = internal global [6 x %struct.VLC] zeroinitializer, align 16
@huff_bits = internal constant [6 x i8] c"\0C\0A\0C\0C\08\06", align 1
@huff_sizes = internal constant [6 x i8] c"\1B\0C\1C/\09\09", align 1

; Function Attrs: cold nounwind optsize uwtable
define internal void @qdmc_init_static_data() #0 {
  %1 = alloca ptr, align 8
  %2 = alloca i32, align 4
  %3 = alloca i32, align 4
  %4 = alloca i32, align 4
  call void @llvm.lifetime.start.p0(i64 8, ptr %1) #12
  store ptr @qdmc_hufftab, ptr %1, align 8, !tbaa !72
  call void @llvm.lifetime.start.p0(i64 4, ptr %2) #12
  call void @llvm.lifetime.start.p0(i64 4, ptr %3) #12
  store i32 0, ptr %3, align 4, !tbaa !36
  call void @llvm.lifetime.start.p0(i64 4, ptr %4) #12
  store i32 0, ptr %4, align 4, !tbaa !36
  br label %5

5:                                                ; preds = %61, %0
  %6 = load i32, ptr %3, align 4, !tbaa !36
  %7 = zext i32 %6 to i64
  %8 = icmp ult i64 %7, 6
  br i1 %8, label %10, label %9

9:                                                ; preds = %5
  call void @llvm.lifetime.end.p0(i64 4, ptr %4) #12
  call void @llvm.lifetime.end.p0(i64 4, ptr %3) #12
  br label %64

10:                                               ; preds = %5
  %11 = load i32, ptr %4, align 4, !tbaa !36
  %12 = zext i32 %11 to i64
  %13 = getelementptr inbounds nuw [13698 x %struct.VLCElem], ptr @qdmc_init_static_data.vlc_buffer, i64 0, i64 %12
  %14 = load i32, ptr %3, align 4, !tbaa !36
  %15 = zext i32 %14 to i64
  %16 = getelementptr inbounds nuw [6 x %struct.VLC], ptr @vtable, i64 0, i64 %15
  %17 = getelementptr inbounds nuw %struct.VLC, ptr %16, i32 0, i32 1
  store ptr %13, ptr %17, align 8, !tbaa !75
  %18 = load i32, ptr %4, align 4, !tbaa !36
  %19 = zext i32 %18 to i64
  %20 = sub i64 13698, %19
  %21 = trunc i64 %20 to i32
  %22 = load i32, ptr %3, align 4, !tbaa !36
  %23 = zext i32 %22 to i64
  %24 = getelementptr inbounds nuw [6 x %struct.VLC], ptr @vtable, i64 0, i64 %23
  %25 = getelementptr inbounds nuw %struct.VLC, ptr %24, i32 0, i32 3
  store i32 %21, ptr %25, align 4, !tbaa !78
  %26 = load i32, ptr %3, align 4, !tbaa !36
  %27 = zext i32 %26 to i64
  %28 = getelementptr inbounds nuw [6 x %struct.VLC], ptr @vtable, i64 0, i64 %27
  %29 = load i32, ptr %3, align 4, !tbaa !36
  %30 = zext i32 %29 to i64
  %31 = getelementptr inbounds nuw [6 x i8], ptr @huff_bits, i64 0, i64 %30
  %32 = load i8, ptr %31, align 1, !tbaa !43
  %33 = zext i8 %32 to i32
  %34 = load i32, ptr %3, align 4, !tbaa !36
  %35 = zext i32 %34 to i64
  %36 = getelementptr inbounds nuw [6 x i8], ptr @huff_sizes, i64 0, i64 %35
  %37 = load i8, ptr %36, align 1, !tbaa !43
  %38 = zext i8 %37 to i32
  %39 = load ptr, ptr %1, align 8, !tbaa !72
  %40 = getelementptr inbounds [2 x i8], ptr %39, i64 0
  %41 = getelementptr inbounds [2 x i8], ptr %40, i64 0, i64 1
  %42 = load ptr, ptr %1, align 8, !tbaa !72
  %43 = getelementptr inbounds [2 x i8], ptr %42, i64 0
  %44 = getelementptr inbounds [2 x i8], ptr %43, i64 0, i64 0
  %45 = call i32 @ff_vlc_init_from_lengths(ptr noundef %28, i32 noundef %33, i32 noundef %38, ptr noundef %41, i32 noundef 2, ptr noundef %44, i32 noundef 2, i32 noundef 1, i32 noundef -1, i32 noundef 15, ptr noundef null)
  %46 = load i32, ptr %3, align 4, !tbaa !36
  %47 = zext i32 %46 to i64
  %48 = getelementptr inbounds nuw [6 x i8], ptr @huff_sizes, i64 0, i64 %47
  %49 = load i8, ptr %48, align 1, !tbaa !43
  %50 = zext i8 %49 to i32
  %51 = load ptr, ptr %1, align 8, !tbaa !72
  %52 = sext i32 %50 to i64
  %53 = getelementptr inbounds [2 x i8], ptr %51, i64 %52
  store ptr %53, ptr %1, align 8, !tbaa !72
  %54 = load i32, ptr %3, align 4, !tbaa !36
  %55 = zext i32 %54 to i64
  %56 = getelementptr inbounds nuw [6 x %struct.VLC], ptr @vtable, i64 0, i64 %55
  %57 = getelementptr inbounds nuw %struct.VLC, ptr %56, i32 0, i32 2
  %58 = load i32, ptr %57, align 8, !tbaa !79
  %59 = load i32, ptr %4, align 4, !tbaa !36
  %60 = add i32 %59, %58
  store i32 %60, ptr %4, align 4, !tbaa !36
  br label %61

61:                                               ; preds = %10
  %62 = load i32, ptr %3, align 4, !tbaa !36
  %63 = add i32 %62, 1
  store i32 %63, ptr %3, align 4, !tbaa !36
  br label %5, !llvm.loop !80

64:                                               ; preds = %9
  store i32 0, ptr %2, align 4, !tbaa !36
  br label %65

65:                                               ; preds = %80, %64
  %66 = load i32, ptr %2, align 4, !tbaa !36
  %67 = icmp slt i32 %66, 512
  br i1 %67, label %68, label %83

68:                                               ; preds = %65
  %69 = load i32, ptr %2, align 4, !tbaa !36
  %70 = sitofp i32 %69 to float
  %71 = fmul nsz float 2.000000e+00, %70
  %72 = fpext nsz float %71 to double
  %73 = fmul nsz double %72, 0x400921FB54442D18
  %74 = fmul nsz double %73, 0x3F60000000000000
  %75 = call nsz double @llvm.sin.f64(double %74)
  %76 = fptrunc nsz double %75 to float
  %77 = load i32, ptr %2, align 4, !tbaa !36
  %78 = sext i32 %77 to i64
  %79 = getelementptr inbounds [512 x float], ptr @sin_table, i64 0, i64 %78
  store float %76, ptr %79, align 4, !tbaa !31
  br label %80

80:                                               ; preds = %68
  %81 = load i32, ptr %2, align 4, !tbaa !36
  %82 = add nsw i32 %81, 1
  store i32 %82, ptr %2, align 4, !tbaa !36
  br label %65, !llvm.loop !81

83:                                               ; preds = %65
  call void @llvm.lifetime.end.p0(i64 4, ptr %2) #12
  call void @llvm.lifetime.end.p0(i64 8, ptr %1) #12
  ret void
}