; Function Attrs: cold nounwind optsize uwtable
define internal void @qdmc_init_static_data() #0 {
  br label %1

1:                                                ; preds = %0, %1
  %indvars.iv = phi i64 [ 0, %0 ], [ %indvars.iv.next, %1 ]
  %.024 = phi i32 [ 0, %0 ], [ %20, %1 ]
  %.02022 = phi ptr [ @qdmc_hufftab, %0 ], [ %17, %1 ]
  %2 = zext i32 %.024 to i64
  %3 = getelementptr inbounds nuw [13698 x %struct.VLCElem], ptr @qdmc_init_static_data.vlc_buffer, i64 0, i64 %2
  %4 = getelementptr inbounds nuw [6 x %struct.VLC], ptr @vtable, i64 0, i64 %indvars.iv
  %5 = getelementptr inbounds nuw i8, ptr %4, i64 8
  store ptr %3, ptr %5, align 8, !tbaa !107
  %6 = sub i32 13698, %.024
  %7 = getelementptr inbounds nuw i8, ptr %4, i64 20
  store i32 %6, ptr %7, align 4, !tbaa !110
  %8 = getelementptr inbounds nuw [6 x i8], ptr @huff_bits, i64 0, i64 %indvars.iv
  %9 = load i8, ptr %8, align 1, !tbaa !30
  %10 = zext i8 %9 to i32
  %11 = getelementptr inbounds nuw [6 x i8], ptr @huff_sizes, i64 0, i64 %indvars.iv
  %12 = load i8, ptr %11, align 1, !tbaa !30
  %13 = zext i8 %12 to i32
  %14 = getelementptr inbounds nuw i8, ptr %.02022, i64 1
  %15 = tail call i32 @ff_vlc_init_from_lengths(ptr noundef nonnull %4, i32 noundef %10, i32 noundef %13, ptr noundef nonnull %14, i32 noundef 2, ptr noundef nonnull %.02022, i32 noundef 2, i32 noundef 1, i32 noundef -1, i32 noundef 15, ptr noundef null) #11
  %16 = zext i8 %12 to i64
  %17 = getelementptr inbounds nuw [2 x i8], ptr %.02022, i64 %16
  %18 = getelementptr inbounds nuw i8, ptr %4, i64 16
  %19 = load i32, ptr %18, align 8, !tbaa !111
  %20 = add i32 %19, %.024
  %indvars.iv.next = add nuw nsw i64 %indvars.iv, 1
  %exitcond.not = icmp eq i64 %indvars.iv.next, 6
  br i1 %exitcond.not, label %.preheader, label %1, !llvm.loop !112

.preheader:                                       ; preds = %1, %.preheader
  %indvars.iv27 = phi i64 [ %indvars.iv.next28, %.preheader ], [ 0, %1 ]
  %21 = trunc nuw nsw i64 %indvars.iv27 to i32
  %22 = uitofp nneg i32 %21 to float
  %23 = fmul nsz float %22, 2.000000e+00
  %24 = fpext nsz float %23 to double
  %25 = fmul nsz double %24, 0x400921FB54442D18
  %26 = fmul nsz double %25, 0x3F60000000000000
  %27 = tail call nsz double @llvm.sin.f64(double %26)
  %28 = fptrunc nsz double %27 to float
  %29 = getelementptr inbounds nuw [512 x float], ptr @sin_table, i64 0, i64 %indvars.iv27
  store float %28, ptr %29, align 4, !tbaa !27
  %indvars.iv.next28 = add nuw nsw i64 %indvars.iv27, 1
  %exitcond30.not = icmp eq i64 %indvars.iv.next28, 512
  br i1 %exitcond30.not, label %30, label %.preheader, !llvm.loop !113

30:                                               ; preds = %.preheader
  ret void
}